; Function Attrs: mustprogress nounwind uwtable
define void @_ZN3zmq8server_tD2Ev(ptr noundef nonnull align 8 dereferenceable(1932) %this) unnamed_addr #2 align 2 personality ptr @__gxx_personality_v0 {
entry:
  store ptr getelementptr inbounds ({ [47 x ptr], [4 x ptr], [7 x ptr], [8 x ptr] }, ptr @_ZTVN3zmq8server_tE, i64 0, i32 0, i64 2), ptr %this, align 8
  %add.ptr = getelementptr inbounds i8, ptr %this, i64 1448
  store ptr getelementptr inbounds ({ [47 x ptr], [4 x ptr], [7 x ptr], [8 x ptr] }, ptr @_ZTVN3zmq8server_tE, i64 0, i32 1, i64 2), ptr %add.ptr, align 8
  %add.ptr2 = getelementptr inbounds i8, ptr %this, i64 1464
  store ptr getelementptr inbounds ({ [47 x ptr], [4 x ptr], [7 x ptr], [8 x ptr] }, ptr @_ZTVN3zmq8server_tE, i64 0, i32 2, i64 2), ptr %add.ptr2, align 8
  %add.ptr3 = getelementptr inbounds i8, ptr %this, i64 1472
  store ptr getelementptr inbounds ({ [47 x ptr], [4 x ptr], [7 x ptr], [8 x ptr] }, ptr @_ZTVN3zmq8server_tE, i64 0, i32 3, i64 2), ptr %add.ptr3, align 8
  %_out_pipes = getelementptr inbounds i8, ptr %this, i64 1880
  %_M_node_count.i.i = getelementptr inbounds i8, ptr %this, i64 1920
  %0 = load i64, ptr %_M_node_count.i.i, align 8
  %cmp.i.i = icmp eq i64 %0, 0
  br i1 %cmp.i.i, label %do.end, label %if.then

if.then:                                          ; preds = %entry
  %1 = load ptr, ptr @stderr, align 8
  %call4 = tail call i32 (ptr, ptr, ...) @fprintf(ptr noundef %1, ptr noundef nonnull @.str, ptr noundef nonnull @.str.1, ptr noundef nonnull @.str.2, i32 noundef 23) #15
  %2 = load ptr, ptr @stderr, align 8
  %call6 = tail call i32 @fflush(ptr noundef %2)
  invoke void @_ZN3zmq9zmq_abortEPKc(ptr noundef nonnull @.str.1)
          to label %do.end unwind label %terminate.lpad

do.end:                                           ; preds = %if.then, %entry
  %_M_parent.i.i.i.i = getelementptr inbounds i8, ptr %this, i64 1896
  %3 = load ptr, ptr %_M_parent.i.i.i.i, align 8
  invoke void @_ZNSt8_Rb_treeIjSt4pairIKjN3zmq8server_t9outpipe_tEESt10_Select1stIS5_ESt4lessIjESaIS5_EE8_M_eraseEPSt13_Rb_tree_nodeIS5_E(ptr noundef nonnull align 8 dereferenceable(48) %_out_pipes, ptr noundef %3)
          to label %_ZNSt3mapIjN3zmq8server_t9outpipe_tESt4lessIjESaISt4pairIKjS2_EEED2Ev.exit unwind label %terminate.lpad.i.i

terminate.lpad.i.i:                               ; preds = %do.end
  %4 = landingpad { ptr, i32 }
          catch ptr null
  %5 = extractvalue { ptr, i32 } %4, 0
  tail call void @__clang_call_terminate(ptr %5) #14
  unreachable

_ZNSt3mapIjN3zmq8server_t9outpipe_tESt4lessIjESaISt4pairIKjS2_EEED2Ev.exit: ; preds = %do.end
  %_fq = getelementptr inbounds i8, ptr %this, i64 1832
  tail call void @_ZN3zmq4fq_tD1Ev(ptr noundef nonnull align 8 dereferenceable(41) %_fq) #13
  tail call void @_ZN3zmq13socket_base_tD2Ev(ptr noundef nonnull align 8 dereferenceable(1825) %this) #13
  ret void

terminate.lpad:                                   ; preds = %if.then
  %6 = landingpad { ptr, i32 }
          catch ptr null
  %7 = extractvalue { ptr, i32 } %6, 0
  tail call void @__clang_call_terminate(ptr %7) #14
  unreachable
}